target datalayout = "e-m:e-p270:32:32-p271:32:32-p272:64:64-i64:64-i128:128-f80:128-n8:16:32:64-S128"
target triple = "x86_64-pc-linux-gnu"

%struct._zval_struct = type { %union._zend_value, %union.anon, %union.anon.2 }
%union._zend_value = type { i64 }
%union.anon = type { i32 }
%union.anon.2 = type { i32 }
%struct.anon.0 = type { i8, i8, %union.anon.1 }
%union.anon.1 = type { i16 }

@.str.36 = private unnamed_addr constant [70 x i8] c"Attribute value must be of type bool for selected attribute, %s given\00", align 1

; Function Attrs: alwaysinline nounwind uwtable
define internal zeroext i8 @zval_get_type(ptr noundef %0) #3 {
  %2 = alloca ptr, align 8
  store ptr %0, ptr %2, align 8, !tbaa !13
  %3 = load ptr, ptr %2, align 8, !tbaa !13
  %4 = getelementptr inbounds nuw %struct._zval_struct, ptr %3, i32 0, i32 1
  %5 = getelementptr inbounds nuw %struct.anon.0, ptr %4, i32 0, i32 0
  %6 = load i8, ptr %5, align 8, !tbaa !15
  ret i8 %6
}

; Function Attrs: nounwind uwtable
define dso_local zeroext i1 @pdo_get_bool_param(ptr noundef %0, ptr noundef %1) #0 {
  %3 = alloca i1, align 1
  %4 = alloca ptr, align 8
  %5 = alloca ptr, align 8
  store ptr %0, ptr %4, align 8, !tbaa !149
  store ptr %1, ptr %5, align 8, !tbaa !13
  %6 = load ptr, ptr %5, align 8, !tbaa !13
  %7 = call zeroext i8 @zval_get_type(ptr noundef %6)
  %8 = zext i8 %7 to i32
  switch i32 %8, label %19 [
    i32 3, label %9
    i32 2, label %11
    i32 4, label %13
    i32 6, label %18
  ]

9:                                                ; preds = %2
  %10 = load ptr, ptr %4, align 8, !tbaa !149
  store i8 1, ptr %10, align 1, !tbaa !18
  store i1 true, ptr %3, align 1
  br label %22

11:                                               ; preds = %2
  %12 = load ptr, ptr %4, align 8, !tbaa !149
  store i8 0, ptr %12, align 1, !tbaa !18
  store i1 true, ptr %3, align 1
  br label %22

13:                                               ; preds = %2
  %14 = load ptr, ptr %5, align 8, !tbaa !13
  %15 = call zeroext i1 @zend_is_true(ptr noundef %14)
  %16 = load ptr, ptr %4, align 8, !tbaa !149
  %17 = zext i1 %15 to i8
  store i8 %17, ptr %16, align 1, !tbaa !18
  store i1 true, ptr %3, align 1
  br label %22

18:                                               ; preds = %2
  br label %19

19:                                               ; preds = %2, %18
  %20 = load ptr, ptr %5, align 8, !tbaa !13
  %21 = call ptr @zend_zval_value_name(ptr noundef %20)
  call void (ptr, ...) @zend_type_error(ptr noundef @.str.36, ptr noundef %21)
  store i1 false, ptr %3, align 1
  br label %22

22:                                               ; preds = %19, %13, %11, %9
  %23 = load i1, ptr %3, align 1
  ret i1 %23
}