; Function Attrs: nounwind uwtable
define dso_local noundef zeroext i1 @pdo_get_bool_param(ptr noundef writeonly captures(none) %0, ptr noundef %1) local_unnamed_addr #0 {
  %3 = getelementptr inbounds nuw i8, ptr %1, i64 8
  %4 = load i8, ptr %3, align 8, !tbaa !4
  switch i8 %4, label %10 [
    i8 3, label %5
    i8 2, label %6
    i8 4, label %7
  ]

5:                                                ; preds = %2
  store i8 1, ptr %0, align 1, !tbaa !131
  br label %12

6:                                                ; preds = %2
  store i8 0, ptr %0, align 1, !tbaa !131
  br label %12

7:                                                ; preds = %2
  %8 = tail call zeroext i1 @zend_is_true(ptr noundef nonnull %1) #13
  %9 = zext i1 %8 to i8
  store i8 %9, ptr %0, align 1, !tbaa !131
  br label %12

10:                                               ; preds = %2
  %11 = tail call ptr @zend_zval_value_name(ptr noundef nonnull %1) #13
  tail call void (ptr, ...) @zend_type_error(ptr noundef nonnull @.str.36, ptr noundef %11) #13
  br label %12

12:                                               ; preds = %10, %7, %6, %5
  %.0 = phi i1 [ false, %10 ], [ true, %7 ], [ true, %6 ], [ true, %5 ]
  ret i1 %.0
}